	.text
	.file	"sum.cpp"
	.globl	_Z3sumjj                # -- Begin function _Z3sumjj
	.p2align	4, 0x90
	.type	_Z3sumjj,@function
_Z3sumjj:                               # @_Z3sumjj
	.cfi_startproc
# %bb.0:
	pushq	%rbp
	.cfi_def_cfa_offset 16
	.cfi_offset %rbp, -16
	movq	%rsp, %rbp
	.cfi_def_cfa_register %rbp
	movl	%edi, -8(%rbp)
	movl	%esi, -4(%rbp)
	movl	-8(%rbp), %eax
	addl	-4(%rbp), %eax
	popq	%rbp
	.cfi_def_cfa %rsp, 8
	retq
.Lfunc_end0:
	.size	_Z3sumjj, .Lfunc_end0-_Z3sumjj
	.cfi_endproc
                                        # -- End function
	.globl	main                    # -- Begin function main
	.p2align	4, 0x90
	.type	main,@function
main:                                   # @main
	.cfi_startproc
# %bb.0:
	pushq	%rbp
	.cfi_def_cfa_offset 16
	.cfi_offset %rbp, -16
	movq	%rsp, %rbp
	.cfi_def_cfa_register %rbp
	subq	$16, %rsp
	movl	$0, -16(%rbp)
	movl	$1, -8(%rbp)
	movl	$2, -4(%rbp)
	movl	-8(%rbp), %edi
	movl	-4(%rbp), %esi
	callq	_Z3sumjj
	movl	%eax, -12(%rbp)
	xorl	%eax, %eax
	addq	$16, %rsp
	popq	%rbp
	.cfi_def_cfa %rsp, 8
	retq
.Lfunc_end1:
	.size	main, .Lfunc_end1-main
	.cfi_endproc
                                        # -- End function
	.ident	"clang version 10.0.0-4ubuntu1 "
	.section	".note.GNU-stack","",@progbits
	.addrsig
